(dp1
S'professor'
p2
(dp3
S'length'
p4
I512
sS'unique'
p5
I00
sS'sortable'
p6
I3
sS'sql'
p7
S'INTEGER REFERENCES auth_user (id) ON DELETE SET NULL  NOT NULL '
p8
sS'notnull'
p9
I01
sS'type'
p10
S'reference auth_user'
p11
ssS'arquivo'
p12
(dp13
g4
I512
sg5
I00
sg6
I2
sg7
S'CHAR(512) NOT NULL'
p14
sg9
I01
sg10
S'upload'
p15
ssS'id'
p16
(dp17
g4
I512
sg5
I00
sg6
I1
sg7
S'INTEGER PRIMARY KEY AUTOINCREMENT'
p18
sg9
I00
sg10
g16
ss.